target datalayout = "e-m:e-p270:32:32-p271:32:32-p272:64:64-i64:64-i128:128-f80:128-n8:16:32:64-S128"
target triple = "x86_64-pc-linux-gnu"

@stderr = external global ptr, align 8
@.str.24 = private unnamed_addr constant [83 x i8] c"usage: %s [-v] [-V] [-[b|m] N[g|m|k]] [-family_to_sec2|-family_to_single] SRC DST\0A\00", align 1
@.str.25 = private unnamed_addr constant [34 x i8] c"   -v     Produce verbose output\0A\00", align 1
@.str.26 = private unnamed_addr constant [43 x i8] c"   -V     Print a version number and exit\0A\00", align 1
@.str.27 = private unnamed_addr constant [47 x i8] c"   -b N   The I/O block size, defaults to 1kB\0A\00", align 1
@.str.28 = private unnamed_addr constant [46 x i8] c"   -m N   The destination member size or 1GB\0A\00", align 1
@.str.29 = private unnamed_addr constant [70 x i8] c"   -family_to_sec2   Deprecated version of -family_to_single (below)\0A\00", align 1
@.str.30 = private unnamed_addr constant [104 x i8] c"   -family_to_single   Change file driver from family to the default single-file VFD (windows or sec2)\0A\00", align 1
@.str.31 = private unnamed_addr constant [39 x i8] c"   SRC    The name of the source file\0A\00", align 1
@.str.32 = private unnamed_addr constant [45 x i8] c"   DST    The name of the destination files\0A\00", align 1
@.str.33 = private unnamed_addr constant [66 x i8] c"Sizes may be suffixed with 'g' for GB, 'm' for MB or 'k' for kB.\0A\00", align 1
@.str.34 = private unnamed_addr constant [66 x i8] c"File family names include an integer printf format such as '%%d'\0A\00", align 1

; Function Attrs: nounwind uwtable
define internal void @usage(ptr noundef %0) #0 {
  %2 = alloca ptr, align 8
  store ptr %0, ptr %2, align 8, !tbaa !13
  %3 = load ptr, ptr @stderr, align 8, !tbaa !20
  %4 = load ptr, ptr %2, align 8, !tbaa !13
  %5 = call i32 (ptr, ptr, ...) @fprintf(ptr noundef %3, ptr noundef @.str.24, ptr noundef %4) #11
  %6 = load ptr, ptr @stderr, align 8, !tbaa !20
  %7 = call i32 (ptr, ptr, ...) @fprintf(ptr noundef %6, ptr noundef @.str.25) #11
  %8 = load ptr, ptr @stderr, align 8, !tbaa !20
  %9 = call i32 (ptr, ptr, ...) @fprintf(ptr noundef %8, ptr noundef @.str.26) #11
  %10 = load ptr, ptr @stderr, align 8, !tbaa !20
  %11 = call i32 (ptr, ptr, ...) @fprintf(ptr noundef %10, ptr noundef @.str.27) #11
  %12 = load ptr, ptr @stderr, align 8, !tbaa !20
  %13 = call i32 (ptr, ptr, ...) @fprintf(ptr noundef %12, ptr noundef @.str.28) #11
  %14 = load ptr, ptr @stderr, align 8, !tbaa !20
  %15 = call i32 (ptr, ptr, ...) @fprintf(ptr noundef %14, ptr noundef @.str.29) #11
  %16 = load ptr, ptr @stderr, align 8, !tbaa !20
  %17 = call i32 (ptr, ptr, ...) @fprintf(ptr noundef %16, ptr noundef @.str.30) #11
  %18 = load ptr, ptr @stderr, align 8, !tbaa !20
  %19 = call i32 (ptr, ptr, ...) @fprintf(ptr noundef %18, ptr noundef @.str.31) #11
  %20 = load ptr, ptr @stderr, align 8, !tbaa !20
  %21 = call i32 (ptr, ptr, ...) @fprintf(ptr noundef %20, ptr noundef @.str.32) #11
  %22 = load ptr, ptr @stderr, align 8, !tbaa !20
  %23 = call i32 (ptr, ptr, ...) @fprintf(ptr noundef %22, ptr noundef @.str.33) #11
  %24 = load ptr, ptr @stderr, align 8, !tbaa !20
  %25 = call i32 (ptr, ptr, ...) @fprintf(ptr noundef %24, ptr noundef @.str.34) #11
  call void @exit(i32 noundef 1) #13
  unreachable
}