; Function Attrs: cold nofree noreturn nounwind uwtable
define internal fastcc void @usage(ptr noundef %0) unnamed_addr #6 {
  %2 = load ptr, ptr @stderr, align 8, !tbaa !16
  %3 = tail call i32 (ptr, ptr, ...) @fprintf(ptr noundef %2, ptr noundef nonnull @.str.24, ptr noundef %0) #24
  %4 = load ptr, ptr @stderr, align 8, !tbaa !16
  %5 = tail call i64 @fwrite(ptr nonnull @.str.25, i64 33, i64 1, ptr %4) #23
  %6 = load ptr, ptr @stderr, align 8, !tbaa !16
  %7 = tail call i64 @fwrite(ptr nonnull @.str.26, i64 42, i64 1, ptr %6) #23
  %8 = load ptr, ptr @stderr, align 8, !tbaa !16
  %9 = tail call i64 @fwrite(ptr nonnull @.str.27, i64 46, i64 1, ptr %8) #23
  %10 = load ptr, ptr @stderr, align 8, !tbaa !16
  %11 = tail call i64 @fwrite(ptr nonnull @.str.28, i64 45, i64 1, ptr %10) #23
  %12 = load ptr, ptr @stderr, align 8, !tbaa !16
  %13 = tail call i64 @fwrite(ptr nonnull @.str.29, i64 69, i64 1, ptr %12) #23
  %14 = load ptr, ptr @stderr, align 8, !tbaa !16
  %15 = tail call i64 @fwrite(ptr nonnull @.str.30, i64 103, i64 1, ptr %14) #23
  %16 = load ptr, ptr @stderr, align 8, !tbaa !16
  %17 = tail call i64 @fwrite(ptr nonnull @.str.31, i64 38, i64 1, ptr %16) #23
  %18 = load ptr, ptr @stderr, align 8, !tbaa !16
  %19 = tail call i64 @fwrite(ptr nonnull @.str.32, i64 44, i64 1, ptr %18) #23
  %20 = load ptr, ptr @stderr, align 8, !tbaa !16
  %21 = tail call i64 @fwrite(ptr nonnull @.str.33, i64 65, i64 1, ptr %20) #23
  %22 = load ptr, ptr @stderr, align 8, !tbaa !16
  %23 = tail call i32 (ptr, ptr, ...) @fprintf(ptr noundef %22, ptr noundef nonnull @.str.34) #24
  tail call void @exit(i32 noundef 1) #22
  unreachable
}